target datalayout = "e-m:e-p270:32:32-p271:32:32-p272:64:64-i64:64-i128:128-f80:128-n8:16:32:64-S128"
target triple = "x86_64-pc-linux-gnu"

%struct.pg_wchar_tbl = type { ptr, ptr, ptr, ptr, ptr, ptr, i32 }

@.str.1 = private unnamed_addr constant [10 x i8] c"mbutils.c\00", align 1
@.str.2 = private unnamed_addr constant [57 x i8] c"cannot perform encoding conversion outside a transaction\00", align 1
@__func__.pg_do_encoding_conversion = private unnamed_addr constant [26 x i8] c"pg_do_encoding_conversion\00", align 1
@.str.3 = private unnamed_addr constant [69 x i8] c"default conversion function for encoding \22%s\22 to \22%s\22 does not exist\00", align 1
@.str.4 = private unnamed_addr constant [14 x i8] c"out of memory\00", align 1
@.str.5 = private unnamed_addr constant [56 x i8] c"String of %d bytes is too long for encoding conversion.\00", align 1
@CurrentMemoryContext = external global ptr, align 8
@pg_wchar_table = external constant [0 x %struct.pg_wchar_tbl], align 8

; Function Attrs: inlinehint nounwind uwtable
define internal i64 @PointerGetDatum(ptr noundef %0) #0 {
  %2 = alloca ptr, align 8
  store ptr %0, ptr %2, align 8
  %3 = load ptr, ptr %2, align 8
  %4 = ptrtoint ptr %3 to i64
  ret i64 %4
}

; Function Attrs: inlinehint nounwind uwtable
define internal i64 @BoolGetDatum(i1 noundef zeroext %0) #0 {
  %2 = alloca i8, align 1
  %3 = zext i1 %0 to i8
  store i8 %3, ptr %2, align 1
  %4 = load i8, ptr %2, align 1, !range !4, !noundef !5
  %5 = trunc i8 %4 to i1
  %6 = select i1 %5, i32 1, i32 0
  %7 = sext i32 %6 to i64
  ret i64 %7
}

; Function Attrs: inlinehint nounwind uwtable
define internal i64 @CStringGetDatum(ptr noundef %0) #0 {
  %2 = alloca ptr, align 8
  store ptr %0, ptr %2, align 8
  %3 = load ptr, ptr %2, align 8
  %4 = call i64 @PointerGetDatum(ptr noundef %3)
  ret i64 %4
}

; Function Attrs: inlinehint nounwind uwtable
define internal i64 @Int32GetDatum(i32 noundef %0) #0 {
  %2 = alloca i32, align 4
  store i32 %0, ptr %2, align 4
  %3 = load i32, ptr %2, align 4
  %4 = sext i32 %3 to i64
  ret i64 %4
}

; Function Attrs: nounwind uwtable
define dso_local zeroext i1 @pg_verify_mbstr(i32 noundef %0, ptr noundef %1, i32 noundef %2, i1 noundef zeroext %3) #1 {
  %5 = alloca i1, align 1
  %6 = alloca i32, align 4
  %7 = alloca ptr, align 8
  %8 = alloca i32, align 4
  %9 = alloca i8, align 1
  %10 = alloca i32, align 4
  %11 = alloca i32, align 4
  store i32 %0, ptr %6, align 4
  store ptr %1, ptr %7, align 8
  store i32 %2, ptr %8, align 4
  %12 = zext i1 %3 to i8
  store i8 %12, ptr %9, align 1
  call void @llvm.lifetime.start.p0(i64 4, ptr %10) #9
  %13 = load i32, ptr %6, align 4
  %14 = sext i32 %13 to i64
  %15 = getelementptr inbounds [0 x %struct.pg_wchar_tbl], ptr @pg_wchar_table, i64 0, i64 %14
  %16 = getelementptr inbounds nuw %struct.pg_wchar_tbl, ptr %15, i32 0, i32 5
  %17 = load ptr, ptr %16, align 8
  %18 = load ptr, ptr %7, align 8
  %19 = load i32, ptr %8, align 4
  %20 = call i32 %17(ptr noundef %18, i32 noundef %19)
  store i32 %20, ptr %10, align 4
  %21 = load i32, ptr %10, align 4
  %22 = load i32, ptr %8, align 4
  %23 = icmp ne i32 %21, %22
  br i1 %23, label %24, label %37

24:                                               ; preds = %4
  %25 = load i8, ptr %9, align 1, !range !4, !noundef !5
  %26 = trunc i8 %25 to i1
  br i1 %26, label %27, label %28

27:                                               ; preds = %24
  store i1 false, ptr %5, align 1
  store i32 1, ptr %11, align 4
  br label %38

28:                                               ; preds = %24
  %29 = load i32, ptr %6, align 4
  %30 = load ptr, ptr %7, align 8
  %31 = load i32, ptr %10, align 4
  %32 = sext i32 %31 to i64
  %33 = getelementptr inbounds i8, ptr %30, i64 %32
  %34 = load i32, ptr %8, align 4
  %35 = load i32, ptr %10, align 4
  %36 = sub i32 %34, %35
  call void @report_invalid_encoding(i32 noundef %29, ptr noundef %33, i32 noundef %36) #12
  unreachable

37:                                               ; preds = %4
  store i1 true, ptr %5, align 1
  store i32 1, ptr %11, align 4
  br label %38

38:                                               ; preds = %37, %27
  call void @llvm.lifetime.end.p0(i64 4, ptr %10) #9
  %39 = load i1, ptr %5, align 1
  ret i1 %39
}

; Function Attrs: nounwind uwtable
define dso_local ptr @pg_do_encoding_conversion(ptr noundef %0, i32 noundef %1, i32 noundef %2, i32 noundef %3) #1 {
  %5 = alloca ptr, align 8
  %6 = alloca ptr, align 8
  %7 = alloca i32, align 4
  %8 = alloca i32, align 4
  %9 = alloca i32, align 4
  %10 = alloca ptr, align 8
  %11 = alloca i32, align 4
  %12 = alloca i32, align 4
  %13 = alloca i64, align 8
  store ptr %0, ptr %6, align 8
  store i32 %1, ptr %7, align 4
  store i32 %2, ptr %8, align 4
  store i32 %3, ptr %9, align 4
  call void @llvm.lifetime.start.p0(i64 8, ptr %10) #9
  call void @llvm.lifetime.start.p0(i64 4, ptr %11) #9
  %14 = load i32, ptr %7, align 4
  %15 = icmp sle i32 %14, 0
  br i1 %15, label %16, label %18

16:                                               ; preds = %4
  %17 = load ptr, ptr %6, align 8
  store ptr %17, ptr %5, align 8
  store i32 1, ptr %12, align 4
  br label %139

18:                                               ; preds = %4
  %19 = load i32, ptr %8, align 4
  %20 = load i32, ptr %9, align 4
  %21 = icmp eq i32 %19, %20
  br i1 %21, label %22, label %24

22:                                               ; preds = %18
  %23 = load ptr, ptr %6, align 8
  store ptr %23, ptr %5, align 8
  store i32 1, ptr %12, align 4
  br label %139

24:                                               ; preds = %18
  %25 = load i32, ptr %9, align 4
  %26 = icmp eq i32 %25, 0
  br i1 %26, label %27, label %29

27:                                               ; preds = %24
  %28 = load ptr, ptr %6, align 8
  store ptr %28, ptr %5, align 8
  store i32 1, ptr %12, align 4
  br label %139

29:                                               ; preds = %24
  %30 = load i32, ptr %8, align 4
  %31 = icmp eq i32 %30, 0
  br i1 %31, label %32, label %38

32:                                               ; preds = %29
  %33 = load i32, ptr %9, align 4
  %34 = load ptr, ptr %6, align 8
  %35 = load i32, ptr %7, align 4
  %36 = call zeroext i1 @pg_verify_mbstr(i32 noundef %33, ptr noundef %34, i32 noundef %35, i1 noundef zeroext false)
  %37 = load ptr, ptr %6, align 8
  store ptr %37, ptr %5, align 8
  store i32 1, ptr %12, align 4
  br label %139

38:                                               ; preds = %29
  %39 = call zeroext i1 @IsTransactionState()
  br i1 %39, label %51, label %40

40:                                               ; preds = %38
  br label %41

41:                                               ; preds = %40
  br i1 true, label %42, label %44

42:                                               ; preds = %41
  %43 = call zeroext i1 @errstart_cold(i32 noundef 21, ptr noundef null) #10
  br i1 %43, label %46, label %48

44:                                               ; preds = %41
  %45 = call zeroext i1 @errstart(i32 noundef 21, ptr noundef null)
  br i1 %45, label %46, label %48

46:                                               ; preds = %44, %42
  %47 = call i32 (ptr, ...) @errmsg_internal(ptr noundef @.str.2)
  call void @errfinish(ptr noundef @.str.1, i32 noundef 379, ptr noundef @__func__.pg_do_encoding_conversion)
  br label %48

48:                                               ; preds = %46, %44, %42
  unreachable

49:                                               ; No predecessors!
  br label %50

50:                                               ; preds = %49
  br label %51

51:                                               ; preds = %50, %38
  %52 = load i32, ptr %8, align 4
  %53 = load i32, ptr %9, align 4
  %54 = call i32 @FindDefaultConversionProc(i32 noundef %52, i32 noundef %53)
  store i32 %54, ptr %11, align 4
  %55 = load i32, ptr %11, align 4
  %56 = icmp ne i32 %55, 0
  br i1 %56, label %73, label %57

57:                                               ; preds = %51
  br label %58

58:                                               ; preds = %57
  br i1 true, label %59, label %61

59:                                               ; preds = %58
  %60 = call zeroext i1 @errstart_cold(i32 noundef 21, ptr noundef null) #10
  br i1 %60, label %63, label %70

61:                                               ; preds = %58
  %62 = call zeroext i1 @errstart(i32 noundef 21, ptr noundef null)
  br i1 %62, label %63, label %70

63:                                               ; preds = %61, %59
  %64 = call i32 @errcode(i32 noundef 52461700)
  %65 = load i32, ptr %8, align 4
  %66 = call ptr @pg_encoding_to_char_private(i32 noundef %65)
  %67 = load i32, ptr %9, align 4
  %68 = call ptr @pg_encoding_to_char_private(i32 noundef %67)
  %69 = call i32 (ptr, ...) @errmsg(ptr noundef @.str.3, ptr noundef %66, ptr noundef %68)
  call void @errfinish(ptr noundef @.str.1, i32 noundef 387, ptr noundef @__func__.pg_do_encoding_conversion)
  br label %70

70:                                               ; preds = %63, %61, %59
  unreachable

71:                                               ; No predecessors!
  br label %72

72:                                               ; preds = %71
  br label %73

73:                                               ; preds = %72, %51
  %74 = load i32, ptr %7, align 4
  %75 = sext i32 %74 to i64
  %76 = icmp uge i64 %75, 2305843009213693951
  br i1 %76, label %77, label %91

77:                                               ; preds = %73
  br label %78

78:                                               ; preds = %77
  br i1 true, label %79, label %81

79:                                               ; preds = %78
  %80 = call zeroext i1 @errstart_cold(i32 noundef 21, ptr noundef null) #10
  br i1 %80, label %83, label %88

81:                                               ; preds = %78
  %82 = call zeroext i1 @errstart(i32 noundef 21, ptr noundef null)
  br i1 %82, label %83, label %88

83:                                               ; preds = %81, %79
  %84 = call i32 @errcode(i32 noundef 261)
  %85 = call i32 (ptr, ...) @errmsg(ptr noundef @.str.4)
  %86 = load i32, ptr %7, align 4
  %87 = call i32 (ptr, ...) @errdetail(ptr noundef @.str.5, i32 noundef %86)
  call void @errfinish(ptr noundef @.str.1, i32 noundef 403, ptr noundef @__func__.pg_do_encoding_conversion)
  br label %88

88:                                               ; preds = %83, %81, %79
  unreachable

89:                                               ; No predecessors!
  br label %90

90:                                               ; preds = %89
  br label %91

91:                                               ; preds = %90, %73
  %92 = load ptr, ptr @CurrentMemoryContext, align 8
  %93 = load i32, ptr %7, align 4
  %94 = sext i32 %93 to i64
  %95 = mul i64 %94, 4
  %96 = add i64 %95, 1
  %97 = call ptr @MemoryContextAllocHuge(ptr noundef %92, i64 noundef %96)
  store ptr %97, ptr %10, align 8
  %98 = load i32, ptr %11, align 4
  %99 = load i32, ptr %8, align 4
  %100 = call i64 @Int32GetDatum(i32 noundef %99)
  %101 = load i32, ptr %9, align 4
  %102 = call i64 @Int32GetDatum(i32 noundef %101)
  %103 = load ptr, ptr %6, align 8
  %104 = call i64 @CStringGetDatum(ptr noundef %103)
  %105 = load ptr, ptr %10, align 8
  %106 = call i64 @CStringGetDatum(ptr noundef %105)
  %107 = load i32, ptr %7, align 4
  %108 = call i64 @Int32GetDatum(i32 noundef %107)
  %109 = call i64 @BoolGetDatum(i1 noundef zeroext false)
  %110 = call i64 @OidFunctionCall6Coll(i32 noundef %98, i32 noundef 0, i64 noundef %100, i64 noundef %102, i64 noundef %104, i64 noundef %106, i64 noundef %108, i64 noundef %109)
  %111 = load i32, ptr %7, align 4
  %112 = icmp sgt i32 %111, 1000000
  br i1 %112, label %113, label %137

113:                                              ; preds = %91
  call void @llvm.lifetime.start.p0(i64 8, ptr %13) #9
  %114 = load ptr, ptr %10, align 8
  %115 = call i64 @strlen(ptr noundef %114) #11
  store i64 %115, ptr %13, align 8
  %116 = load i64, ptr %13, align 8
  %117 = icmp uge i64 %116, 1073741823
  br i1 %117, label %118, label %132

118:                                              ; preds = %113
  br label %119

119:                                              ; preds = %118
  br i1 true, label %120, label %122

120:                                              ; preds = %119
  %121 = call zeroext i1 @errstart_cold(i32 noundef 21, ptr noundef null) #10
  br i1 %121, label %124, label %129

122:                                              ; preds = %119
  %123 = call zeroext i1 @errstart(i32 noundef 21, ptr noundef null)
  br i1 %123, label %124, label %129

124:                                              ; preds = %122, %120
  %125 = call i32 @errcode(i32 noundef 261)
  %126 = call i32 (ptr, ...) @errmsg(ptr noundef @.str.4)
  %127 = load i32, ptr %7, align 4
  %128 = call i32 (ptr, ...) @errdetail(ptr noundef @.str.5, i32 noundef %127)
  call void @errfinish(ptr noundef @.str.1, i32 noundef 431, ptr noundef @__func__.pg_do_encoding_conversion)
  br label %129

129:                                              ; preds = %124, %122, %120
  unreachable

130:                                              ; No predecessors!
  br label %131

131:                                              ; preds = %130
  br label %132

132:                                              ; preds = %131, %113
  %133 = load ptr, ptr %10, align 8
  %134 = load i64, ptr %13, align 8
  %135 = add i64 %134, 1
  %136 = call ptr @repalloc(ptr noundef %133, i64 noundef %135)
  store ptr %136, ptr %10, align 8
  call void @llvm.lifetime.end.p0(i64 8, ptr %13) #9
  br label %137

137:                                              ; preds = %132, %91
  %138 = load ptr, ptr %10, align 8
  store ptr %138, ptr %5, align 8
  store i32 1, ptr %12, align 4
  br label %139

139:                                              ; preds = %137, %32, %27, %22, %16
  call void @llvm.lifetime.end.p0(i64 4, ptr %11) #9
  call void @llvm.lifetime.end.p0(i64 8, ptr %10) #9
  %140 = load ptr, ptr %5, align 8
  ret ptr %140
}