; Function Attrs: nounwind uwtable
define dso_local ptr @pg_do_encoding_conversion(ptr noundef %0, i32 noundef %1, i32 noundef %2, i32 noundef %3) local_unnamed_addr #0 {
  %5 = icmp slt i32 %1, 1
  %6 = icmp eq i32 %2, %3
  %or.cond = or i1 %5, %6
  %7 = icmp eq i32 %3, 0
  %or.cond40 = or i1 %7, %or.cond
  br i1 %or.cond40, label %pg_verify_mbstr.exit, label %8

8:                                                ; preds = %4
  %9 = icmp eq i32 %2, 0
  br i1 %9, label %10, label %19

10:                                               ; preds = %8
  %11 = sext i32 %3 to i64
  %12 = getelementptr inbounds [0 x %struct.pg_wchar_tbl], ptr @pg_wchar_table, i64 0, i64 %11, i32 5
  %13 = load ptr, ptr %12, align 8
  %14 = tail call i32 %13(ptr noundef %0, i32 noundef %1) #13
  %.not.i = icmp eq i32 %14, %1
  br i1 %.not.i, label %pg_verify_mbstr.exit, label %15

15:                                               ; preds = %10
  %16 = sext i32 %14 to i64
  %17 = getelementptr inbounds i8, ptr %0, i64 %16
  %18 = sub i32 %1, %14
  tail call void @report_invalid_encoding(i32 noundef %3, ptr noundef %17, i32 noundef %18) #15
  unreachable

19:                                               ; preds = %8
  %20 = tail call zeroext i1 @IsTransactionState() #13
  br i1 %20, label %24, label %21

21:                                               ; preds = %19
  %22 = tail call zeroext i1 @errstart_cold(i32 noundef 21, ptr noundef null) #14
  tail call void @llvm.assume(i1 %22)
  %23 = tail call i32 (ptr, ...) @errmsg_internal(ptr noundef nonnull @.str.2) #13
  tail call void @errfinish(ptr noundef nonnull @.str.1, i32 noundef 379, ptr noundef nonnull @__func__.pg_do_encoding_conversion) #13
  unreachable

24:                                               ; preds = %19
  %25 = tail call i32 @FindDefaultConversionProc(i32 noundef %2, i32 noundef %3) #13
  %.not = icmp eq i32 %25, 0
  br i1 %.not, label %26, label %32

26:                                               ; preds = %24
  %27 = tail call zeroext i1 @errstart_cold(i32 noundef 21, ptr noundef null) #14
  tail call void @llvm.assume(i1 %27)
  %28 = tail call i32 @errcode(i32 noundef 52461700) #13
  %29 = tail call ptr @pg_encoding_to_char_private(i32 noundef %2) #13
  %30 = tail call ptr @pg_encoding_to_char_private(i32 noundef %3) #13
  %31 = tail call i32 (ptr, ...) @errmsg(ptr noundef nonnull @.str.3, ptr noundef %29, ptr noundef %30) #13
  tail call void @errfinish(ptr noundef nonnull @.str.1, i32 noundef 387, ptr noundef nonnull @__func__.pg_do_encoding_conversion) #13
  unreachable

32:                                               ; preds = %24
  %33 = zext nneg i32 %1 to i64
  %34 = load ptr, ptr @CurrentMemoryContext, align 8
  %35 = shl nuw nsw i64 %33, 2
  %36 = or disjoint i64 %35, 1
  %37 = tail call ptr @MemoryContextAllocHuge(ptr noundef %34, i64 noundef %36) #13
  %38 = sext i32 %2 to i64
  %39 = sext i32 %3 to i64
  %40 = ptrtoint ptr %0 to i64
  %41 = ptrtoint ptr %37 to i64
  %42 = tail call i64 @OidFunctionCall6Coll(i32 noundef %25, i32 noundef 0, i64 noundef %38, i64 noundef %39, i64 noundef %40, i64 noundef %41, i64 noundef %33, i64 noundef 0) #13
  %43 = icmp samesign ugt i32 %1, 1000000
  br i1 %43, label %44, label %pg_verify_mbstr.exit

44:                                               ; preds = %32
  %45 = tail call i64 @strlen(ptr noundef nonnull dereferenceable(1) %37) #16
  %46 = icmp ugt i64 %45, 1073741822
  br i1 %46, label %47, label %52

47:                                               ; preds = %44
  %48 = tail call zeroext i1 @errstart_cold(i32 noundef 21, ptr noundef null) #14
  tail call void @llvm.assume(i1 %48)
  %49 = tail call i32 @errcode(i32 noundef 261) #13
  %50 = tail call i32 (ptr, ...) @errmsg(ptr noundef nonnull @.str.4) #13
  %51 = tail call i32 (ptr, ...) @errdetail(ptr noundef nonnull @.str.5, i32 noundef %1) #13
  tail call void @errfinish(ptr noundef nonnull @.str.1, i32 noundef 431, ptr noundef nonnull @__func__.pg_do_encoding_conversion) #13
  unreachable

52:                                               ; preds = %44
  %53 = add nuw nsw i64 %45, 1
  %54 = tail call ptr @repalloc(ptr noundef nonnull %37, i64 noundef %53) #13
  br label %pg_verify_mbstr.exit

pg_verify_mbstr.exit:                             ; preds = %10, %32, %52, %4
  %.0 = phi ptr [ %0, %4 ], [ %54, %52 ], [ %37, %32 ], [ %0, %10 ]
  ret ptr %.0
}